; Function Attrs: mustprogress null_pointer_is_valid sspstrong uwtable
define void @_ZN14SequenceDialog26on_actionZoomOut_triggeredEv(ptr noundef readonly align 8 captures(none) dereferenceable_or_null(305) %0) local_unnamed_addr #0 align 2 {
  %2 = getelementptr inbounds nuw i8, ptr %0, i64 144
  %3 = load ptr, ptr %2, align 8
  %4 = getelementptr inbounds nuw i8, ptr %3, i64 176
  %5 = load ptr, ptr %4, align 8
  %6 = tail call noundef ptr @_ZNK11QCustomPlot8axisRectEi(ptr noundef align 8 dereferenceable_or_null(513) %5, i32 noundef 0)
  %7 = tail call noundef double @_ZN11QCPAxisRect15rangeZoomFactorEN2Qt11OrientationE(ptr noundef align 8 dereferenceable_or_null(432) %6, i32 noundef 1)
  %reciprocal.i = fdiv double 1.000000e+00, %7
  %8 = getelementptr inbounds nuw i8, ptr %5, i64 56
  %9 = load ptr, ptr %8, align 8
  %10 = getelementptr inbounds nuw i8, ptr %5, i64 40
  %11 = load ptr, ptr %10, align 8
  %12 = getelementptr inbounds nuw i8, ptr %11, i64 304
  %.sroa.0.0.copyload.i.i = load double, ptr %12, align 8
  tail call void @_ZN7QCPAxis10scaleRangeEdd(ptr noundef align 8 dereferenceable_or_null(472) %9, double noundef %reciprocal.i, double noundef %.sroa.0.0.copyload.i.i)
  tail call void @_ZN11QCustomPlot6replotENS_15RefreshPriorityE(ptr noundef align 8 dereferenceable_or_null(513) %5, i32 noundef 2)
  ret void
}